; Function Attrs: nounwind uwtable
define void @Gia_ParTestSimulate(ptr noundef captures(none) initializes((768, 776), (784, 788)) %0, i32 noundef %1) local_unnamed_addr #2 {
  %3 = tail call i32 @Gia_ManRandom(i32 noundef 1) #18
  %4 = getelementptr i8, ptr %0, i64 24
  %.val.i = load i32, ptr %4, align 8, !tbaa !51
  %5 = mul nsw i32 %.val.i, %1
  %6 = sext i32 %5 to i64
  %7 = shl nsw i64 %6, 3
  %8 = tail call noalias ptr @malloc(i64 noundef %7) #19
  %9 = getelementptr inbounds nuw i8, ptr %0, i64 768
  store ptr %8, ptr %9, align 8, !tbaa !32
  %10 = getelementptr inbounds nuw i8, ptr %0, i64 784
  store i32 %1, ptr %10, align 8, !tbaa !33
  %11 = getelementptr i8, ptr %0, i64 32
  %12 = getelementptr inbounds nuw i8, ptr %0, i64 64
  %13 = load ptr, ptr %12, align 8, !tbaa !42
  %14 = getelementptr i8, ptr %13, i64 4
  %.val20.i = load i32, ptr %14, align 4, !tbaa !29
  %15 = icmp sgt i32 %.val20.i, 0
  br i1 %15, label %.lr.ph23.i, label %Gia_ParTestSimulateInit.exit

.lr.ph23.i:                                       ; preds = %2, %._crit_edge.i
  %.val16.i = phi i32 [ %.val16.i14, %._crit_edge.i ], [ %1, %2 ]
  %16 = phi ptr [ %30, %._crit_edge.i ], [ %13, %2 ]
  %indvars.iv26.i = phi i64 [ %indvars.iv.next27.i, %._crit_edge.i ], [ 0, %2 ]
  %.val17.i = load ptr, ptr %11, align 8, !tbaa !30
  %.not.i = icmp eq ptr %.val17.i, null
  br i1 %.not.i, label %Gia_ParTestSimulateInit.exit.loopexit, label %17

17:                                               ; preds = %.lr.ph23.i
  %18 = getelementptr i8, ptr %16, i64 8
  %.val18.val.i = load ptr, ptr %18, align 8, !tbaa !31
  %19 = getelementptr inbounds nuw i32, ptr %.val18.val.i, i64 %indvars.iv26.i
  %20 = load i32, ptr %19, align 4, !tbaa !34
  %.val15.i = load ptr, ptr %9, align 8, !tbaa !32
  %21 = mul nsw i32 %.val16.i, %20
  %22 = sext i32 %21 to i64
  %23 = getelementptr inbounds i64, ptr %.val15.i, i64 %22
  %24 = icmp sgt i32 %.val16.i, 0
  br i1 %24, label %.lr.ph.i, label %._crit_edge.i

.lr.ph.i:                                         ; preds = %17, %.lr.ph.i
  %indvars.iv.i = phi i64 [ %indvars.iv.next.i, %.lr.ph.i ], [ 0, %17 ]
  %25 = tail call i64 @Gia_ManRandomW(i32 noundef 0) #18
  %26 = getelementptr inbounds nuw i64, ptr %23, i64 %indvars.iv.i
  store i64 %25, ptr %26, align 8, !tbaa !3
  %indvars.iv.next.i = add nuw nsw i64 %indvars.iv.i, 1
  %27 = load i32, ptr %10, align 8, !tbaa !33
  %28 = sext i32 %27 to i64
  %29 = icmp slt i64 %indvars.iv.next.i, %28
  br i1 %29, label %.lr.ph.i, label %._crit_edge.loopexit.i, !llvm.loop !43

._crit_edge.loopexit.i:                           ; preds = %.lr.ph.i
  %.pre.i = load ptr, ptr %12, align 8, !tbaa !42
  br label %._crit_edge.i

._crit_edge.i:                                    ; preds = %._crit_edge.loopexit.i, %17
  %.val16.i14 = phi i32 [ %27, %._crit_edge.loopexit.i ], [ %.val16.i, %17 ]
  %30 = phi ptr [ %.pre.i, %._crit_edge.loopexit.i ], [ %16, %17 ]
  %indvars.iv.next27.i = add nuw nsw i64 %indvars.iv26.i, 1
  %31 = getelementptr i8, ptr %30, i64 4
  %.val.i10 = load i32, ptr %31, align 4, !tbaa !29
  %32 = sext i32 %.val.i10 to i64
  %33 = icmp slt i64 %indvars.iv.next27.i, %32
  br i1 %33, label %.lr.ph23.i, label %Gia_ParTestSimulateInit.exit.loopexit, !llvm.loop !44

Gia_ParTestSimulateInit.exit.loopexit:            ; preds = %._crit_edge.i, %.lr.ph23.i
  %.pre = load i32, ptr %4, align 8, !tbaa !51
  br label %Gia_ParTestSimulateInit.exit

Gia_ParTestSimulateInit.exit:                     ; preds = %Gia_ParTestSimulateInit.exit.loopexit, %2
  %34 = phi i32 [ %.pre, %Gia_ParTestSimulateInit.exit.loopexit ], [ %.val.i, %2 ]
  %35 = icmp sgt i32 %34, 0
  br i1 %35, label %.lr.ph, label %.critedge

.lr.ph:                                           ; preds = %Gia_ParTestSimulateInit.exit, %36
  %.012 = phi i32 [ %37, %36 ], [ 0, %Gia_ParTestSimulateInit.exit ]
  %.val = load ptr, ptr %11, align 8, !tbaa !30
  %.not = icmp eq ptr %.val, null
  br i1 %.not, label %.critedge, label %36

36:                                               ; preds = %.lr.ph
  tail call void @Gia_ParTestSimulateObj(ptr noundef nonnull %0, i32 noundef %.012)
  %37 = add nuw nsw i32 %.012, 1
  %38 = load i32, ptr %4, align 8, !tbaa !51
  %39 = icmp slt i32 %37, %38
  br i1 %39, label %.lr.ph, label %.critedge, !llvm.loop !52

.critedge:                                        ; preds = %.lr.ph, %36, %Gia_ParTestSimulateInit.exit
  %40 = load ptr, ptr %9, align 8, !tbaa !32
  %.not.i11 = icmp eq ptr %40, null
  br i1 %.not.i11, label %Gia_ParTestFree.exit, label %41

41:                                               ; preds = %.critedge
  tail call void @free(ptr noundef nonnull %40) #18
  store ptr null, ptr %9, align 8, !tbaa !32
  br label %Gia_ParTestFree.exit

Gia_ParTestFree.exit:                             ; preds = %.critedge, %41
  store i32 0, ptr %10, align 8, !tbaa !33
  ret void
}